target datalayout = "e-m:e-p270:32:32-p271:32:32-p272:64:64-i64:64-i128:128-f80:128-n8:16:32:64-S128"
target triple = "x86_64-pc-linux-gnu"

%struct.pmix_output_desc_t = type { i8, i8, i32, i8, i32, ptr, ptr, i32, ptr, i32, i8, i8, i8, i8, ptr, i32, i32 }

@initialized = internal global i8 0, align 1
@pmix_output_info = global [64 x %struct.pmix_output_desc_t] zeroinitializer, align 16

; Function Attrs: nounwind uwtable
define zeroext i1 @pmix_output_switch(i32 noundef %0, i1 noundef zeroext %1) #0 {
  %3 = alloca i32, align 4
  %4 = alloca i8, align 1
  %5 = alloca i8, align 1
  store i32 %0, ptr %3, align 4, !tbaa !33
  %6 = zext i1 %1 to i8
  store i8 %6, ptr %4, align 1, !tbaa !29
  call void @llvm.lifetime.start.p0(i64 1, ptr %5) #12
  store i8 0, ptr %5, align 1, !tbaa !29
  %7 = load i8, ptr @initialized, align 1, !tbaa !29, !range !30, !noundef !31
  %8 = trunc i8 %7 to i1
  br i1 %8, label %11, label %9

9:                                                ; preds = %2
  %10 = call zeroext i1 @pmix_output_init()
  br label %11

11:                                               ; preds = %9, %2
  %12 = load i32, ptr %3, align 4, !tbaa !33
  %13 = icmp sge i32 %12, 0
  br i1 %13, label %14, label %32

14:                                               ; preds = %11
  %15 = load i32, ptr %3, align 4, !tbaa !33
  %16 = icmp slt i32 %15, 64
  br i1 %16, label %17, label %32

17:                                               ; preds = %14
  %18 = load i32, ptr %3, align 4, !tbaa !33
  %19 = sext i32 %18 to i64
  %20 = getelementptr inbounds [64 x %struct.pmix_output_desc_t], ptr @pmix_output_info, i64 0, i64 %19
  %21 = getelementptr inbounds nuw %struct.pmix_output_desc_t, ptr %20, i32 0, i32 1
  %22 = load i8, ptr %21, align 1, !tbaa !42, !range !30, !noundef !31
  %23 = trunc i8 %22 to i1
  %24 = zext i1 %23 to i8
  store i8 %24, ptr %5, align 1, !tbaa !29
  %25 = load i8, ptr %4, align 1, !tbaa !29, !range !30, !noundef !31
  %26 = trunc i8 %25 to i1
  %27 = load i32, ptr %3, align 4, !tbaa !33
  %28 = sext i32 %27 to i64
  %29 = getelementptr inbounds [64 x %struct.pmix_output_desc_t], ptr @pmix_output_info, i64 0, i64 %28
  %30 = getelementptr inbounds nuw %struct.pmix_output_desc_t, ptr %29, i32 0, i32 1
  %31 = zext i1 %26 to i8
  store i8 %31, ptr %30, align 1, !tbaa !42
  br label %32

32:                                               ; preds = %17, %14, %11
  %33 = load i8, ptr %5, align 1, !tbaa !29, !range !30, !noundef !31
  %34 = trunc i8 %33 to i1
  call void @llvm.lifetime.end.p0(i64 1, ptr %5) #12
  ret i1 %34
}