; Function Attrs: nounwind uwtable
define zeroext i1 @pmix_output_switch(i32 noundef %0, i1 noundef zeroext %1) local_unnamed_addr #2 {
  %3 = zext i1 %1 to i8
  %.b8 = load i1, ptr @initialized, align 1
  br i1 %.b8, label %6, label %4

4:                                                ; preds = %2
  %5 = tail call zeroext i1 @pmix_output_init()
  br label %6

6:                                                ; preds = %4, %2
  %or.cond = icmp ult i32 %0, 64
  br i1 %or.cond, label %7, label %12

7:                                                ; preds = %6
  %8 = zext nneg i32 %0 to i64
  %9 = getelementptr inbounds nuw [64 x %struct.pmix_output_desc_t], ptr @pmix_output_info, i64 0, i64 %8, i32 1
  %10 = load i8, ptr %9, align 1, !tbaa !36, !range !26, !noundef !27
  store i8 %3, ptr %9, align 1, !tbaa !36
  %11 = trunc nuw i8 %10 to i1
  br label %12

12:                                               ; preds = %7, %6
  %.0 = phi i1 [ %11, %7 ], [ false, %6 ]
  ret i1 %.0
}